target datalayout = "e-m:e-p270:32:32-p271:32:32-p272:64:64-i64:64-i128:128-f80:128-n8:16:32:64-S128"
target triple = "x86_64-unknown-linux-gnu"

%"class.boost::intrusive_ptr" = type { ptr }
%"struct.facebook::velox::NullsBuilder" = type { i32, ptr, %"class.boost::intrusive_ptr", ptr }
%"class.facebook::velox::Buffer" = type { ptr, ptr, ptr, i64, i64, %"struct.std::atomic", i8, [2 x i64] }
%"struct.std::atomic" = type { %"struct.std::__atomic_base" }
%"struct.std::__atomic_base" = type { i32 }

; Function Attrs: mustprogress nounwind uwtable
define linkonce_odr void @_ZN8facebook5velox6Buffer6addRefEv(ptr noundef nonnull align 8 dereferenceable(64) %this) #2 comdat align 2 {
entry:
  %this.addr.i = alloca ptr, align 8
  %__i.addr.i = alloca i32, align 4
  %__m.addr.i = alloca i32, align 4
  %.atomictmp.i = alloca i32, align 4
  %atomic-temp.i = alloca i32, align 4
  %this.addr = alloca ptr, align 8
  store ptr %this, ptr %this.addr, align 8
  %this1 = load ptr, ptr %this.addr, align 8
  %referenceCount_ = getelementptr inbounds %"class.facebook::velox::Buffer", ptr %this1, i32 0, i32 5
  store ptr %referenceCount_, ptr %this.addr.i, align 8
  store i32 1, ptr %__i.addr.i, align 4
  store i32 5, ptr %__m.addr.i, align 4
  %this1.i = load ptr, ptr %this.addr.i, align 8
  %0 = load i32, ptr %__m.addr.i, align 4
  %1 = load i32, ptr %__i.addr.i, align 4
  store i32 %1, ptr %.atomictmp.i, align 4
  switch i32 %0, label %monotonic.i [
    i32 1, label %acquire.i
    i32 2, label %acquire.i
    i32 3, label %release.i
    i32 4, label %acqrel.i
    i32 5, label %seqcst.i
  ]

monotonic.i:                                      ; preds = %entry
  %2 = load i32, ptr %.atomictmp.i, align 4
  %3 = atomicrmw add ptr %this1.i, i32 %2 monotonic, align 4
  store i32 %3, ptr %atomic-temp.i, align 4
  br label %_ZNSt13__atomic_baseIiE9fetch_addEiSt12memory_order.exit

acquire.i:                                        ; preds = %entry, %entry
  %4 = load i32, ptr %.atomictmp.i, align 4
  %5 = atomicrmw add ptr %this1.i, i32 %4 acquire, align 4
  store i32 %5, ptr %atomic-temp.i, align 4
  br label %_ZNSt13__atomic_baseIiE9fetch_addEiSt12memory_order.exit

release.i:                                        ; preds = %entry
  %6 = load i32, ptr %.atomictmp.i, align 4
  %7 = atomicrmw add ptr %this1.i, i32 %6 release, align 4
  store i32 %7, ptr %atomic-temp.i, align 4
  br label %_ZNSt13__atomic_baseIiE9fetch_addEiSt12memory_order.exit

acqrel.i:                                         ; preds = %entry
  %8 = load i32, ptr %.atomictmp.i, align 4
  %9 = atomicrmw add ptr %this1.i, i32 %8 acq_rel, align 4
  store i32 %9, ptr %atomic-temp.i, align 4
  br label %_ZNSt13__atomic_baseIiE9fetch_addEiSt12memory_order.exit

seqcst.i:                                         ; preds = %entry
  %10 = load i32, ptr %.atomictmp.i, align 4
  %11 = atomicrmw add ptr %this1.i, i32 %10 seq_cst, align 4
  store i32 %11, ptr %atomic-temp.i, align 4
  br label %_ZNSt13__atomic_baseIiE9fetch_addEiSt12memory_order.exit

_ZNSt13__atomic_baseIiE9fetch_addEiSt12memory_order.exit: ; preds = %seqcst.i, %acqrel.i, %release.i, %acquire.i, %monotonic.i
  ret void
}

; Function Attrs: mustprogress uwtable
define internal void @_ZN8facebook5veloxL21intrusive_ptr_add_refEPNS0_6BufferE(ptr noundef %buffer) #0 {
entry:
  %buffer.addr = alloca ptr, align 8
  store ptr %buffer, ptr %buffer.addr, align 8
  %0 = load ptr, ptr %buffer.addr, align 8
  call void @_ZN8facebook5velox6Buffer6addRefEv(ptr noundef nonnull align 8 dereferenceable(64) %0)
  ret void
}

; Function Attrs: mustprogress uwtable
define linkonce_odr void @_ZN5boost13intrusive_ptrIN8facebook5velox6BufferEEC2ERKS4_(ptr noundef nonnull align 8 dereferenceable(8) %this, ptr noundef nonnull align 8 dereferenceable(8) %rhs) unnamed_addr #0 comdat align 2 {
entry:
  %this.addr = alloca ptr, align 8
  %rhs.addr = alloca ptr, align 8
  store ptr %this, ptr %this.addr, align 8
  store ptr %rhs, ptr %rhs.addr, align 8
  %this1 = load ptr, ptr %this.addr, align 8
  %px = getelementptr inbounds %"class.boost::intrusive_ptr", ptr %this1, i32 0, i32 0
  %0 = load ptr, ptr %rhs.addr, align 8
  %px2 = getelementptr inbounds %"class.boost::intrusive_ptr", ptr %0, i32 0, i32 0
  %1 = load ptr, ptr %px2, align 8
  store ptr %1, ptr %px, align 8
  %px3 = getelementptr inbounds %"class.boost::intrusive_ptr", ptr %this1, i32 0, i32 0
  %2 = load ptr, ptr %px3, align 8
  %cmp = icmp ne ptr %2, null
  br i1 %cmp, label %if.then, label %if.end

if.then:                                          ; preds = %entry
  %px4 = getelementptr inbounds %"class.boost::intrusive_ptr", ptr %this1, i32 0, i32 0
  %3 = load ptr, ptr %px4, align 8
  call void @_ZN8facebook5veloxL21intrusive_ptr_add_refEPNS0_6BufferE(ptr noundef %3)
  br label %if.end

if.end:                                           ; preds = %if.then, %entry
  ret void
}

; Function Attrs: mustprogress uwtable
define linkonce_odr void @_ZN5boost13intrusive_ptrIN8facebook5velox6BufferEEC2EPS3_b(ptr noundef nonnull align 8 dereferenceable(8) %this, ptr noundef %p, i1 noundef zeroext %add_ref) unnamed_addr #0 comdat align 2 {
entry:
  %this.addr = alloca ptr, align 8
  %p.addr = alloca ptr, align 8
  %add_ref.addr = alloca i8, align 1
  store ptr %this, ptr %this.addr, align 8
  store ptr %p, ptr %p.addr, align 8
  %frombool = zext i1 %add_ref to i8
  store i8 %frombool, ptr %add_ref.addr, align 1
  %this1 = load ptr, ptr %this.addr, align 8
  %px = getelementptr inbounds %"class.boost::intrusive_ptr", ptr %this1, i32 0, i32 0
  %0 = load ptr, ptr %p.addr, align 8
  store ptr %0, ptr %px, align 8
  %px2 = getelementptr inbounds %"class.boost::intrusive_ptr", ptr %this1, i32 0, i32 0
  %1 = load ptr, ptr %px2, align 8
  %cmp = icmp ne ptr %1, null
  br i1 %cmp, label %land.lhs.true, label %if.end

land.lhs.true:                                    ; preds = %entry
  %2 = load i8, ptr %add_ref.addr, align 1
  %tobool = trunc i8 %2 to i1
  br i1 %tobool, label %if.then, label %if.end

if.then:                                          ; preds = %land.lhs.true
  %px3 = getelementptr inbounds %"class.boost::intrusive_ptr", ptr %this1, i32 0, i32 0
  %3 = load ptr, ptr %px3, align 8
  call void @_ZN8facebook5veloxL21intrusive_ptr_add_refEPNS0_6BufferE(ptr noundef %3)
  br label %if.end

if.end:                                           ; preds = %if.then, %land.lhs.true, %entry
  ret void
}

; Function Attrs: mustprogress uwtable
define linkonce_odr void @_ZNK8facebook5velox12NullsBuilder5buildEv(ptr noalias sret(%"class.boost::intrusive_ptr") align 8 %agg.result, ptr noundef nonnull align 8 dereferenceable(32) %this) #0 comdat align 2 {
entry:
  %result.ptr = alloca ptr, align 8
  %this.addr = alloca ptr, align 8
  store ptr %agg.result, ptr %result.ptr, align 8
  store ptr %this, ptr %this.addr, align 8
  %this1 = load ptr, ptr %this.addr, align 8
  %nulls_ = getelementptr inbounds %"struct.facebook::velox::NullsBuilder", ptr %this1, i32 0, i32 2
  call void @_ZN5boost13intrusive_ptrIN8facebook5velox6BufferEEC2ERKS4_(ptr noundef nonnull align 8 dereferenceable(8) %agg.result, ptr noundef nonnull align 8 dereferenceable(8) %nulls_)
  ret void
}

; Function Attrs: mustprogress uwtable
define linkonce_odr void @_ZN8facebook5velox12NullsBuilderC2EiPNS0_6memory10MemoryPoolE(ptr noundef nonnull align 8 dereferenceable(32) %this, i32 noundef %size, ptr noundef %pool) unnamed_addr #0 comdat align 2 {
entry:
  %this.addr = alloca ptr, align 8
  %size.addr = alloca i32, align 4
  %pool.addr = alloca ptr, align 8
  store ptr %this, ptr %this.addr, align 8
  store i32 %size, ptr %size.addr, align 4
  store ptr %pool, ptr %pool.addr, align 8
  %this1 = load ptr, ptr %this.addr, align 8
  %size_ = getelementptr inbounds %"struct.facebook::velox::NullsBuilder", ptr %this1, i32 0, i32 0
  %0 = load i32, ptr %size.addr, align 4
  store i32 %0, ptr %size_, align 8
  %pool_ = getelementptr inbounds %"struct.facebook::velox::NullsBuilder", ptr %this1, i32 0, i32 1
  %1 = load ptr, ptr %pool.addr, align 8
  store ptr %1, ptr %pool_, align 8
  %nulls_ = getelementptr inbounds %"struct.facebook::velox::NullsBuilder", ptr %this1, i32 0, i32 2
  call void @_ZN5boost13intrusive_ptrIN8facebook5velox6BufferEEC2EPS3_b(ptr noundef nonnull align 8 dereferenceable(8) %nulls_, ptr noundef null, i1 noundef zeroext true)
  %rawNulls_ = getelementptr inbounds %"struct.facebook::velox::NullsBuilder", ptr %this1, i32 0, i32 3
  store ptr null, ptr %rawNulls_, align 8
  ret void
}

; Function Attrs: mustprogress uwtable
define void @_ZN8facebook5velox20generator_spec_utils19generateNullsBufferERSt23mersenne_twister_engineImLm32ELm624ELm397ELm31ELm2567483615ELm11ELm4294967295ELm7ELm2636928640ELm15ELm4022730752ELm18ELm1812433253EEPNS0_6memory10MemoryPoolEid(ptr noalias sret(%"class.boost::intrusive_ptr") align 8 %agg.result, ptr noundef nonnull align 8 dereferenceable(5000) %rng, ptr noundef %pool, i32 noundef %vectorSize, double noundef %nullProbability) #0 personality ptr @__gxx_personality_v0 {
entry:
  %result.ptr = alloca ptr, align 8
  %rng.addr = alloca ptr, align 8
  %pool.addr = alloca ptr, align 8
  %vectorSize.addr = alloca i32, align 4
  %nullProbability.addr = alloca double, align 8
  %builder = alloca %"struct.facebook::velox::NullsBuilder", align 8
  %i = alloca i64, align 8
  %exn.slot = alloca ptr, align 8
  %ehselector.slot = alloca i32, align 4
  store ptr %agg.result, ptr %result.ptr, align 8
  store ptr %rng, ptr %rng.addr, align 8
  store ptr %pool, ptr %pool.addr, align 8
  store i32 %vectorSize, ptr %vectorSize.addr, align 4
  store double %nullProbability, ptr %nullProbability.addr, align 8
  %0 = load i32, ptr %vectorSize.addr, align 4
  %1 = load ptr, ptr %pool.addr, align 8
  call void @_ZN8facebook5velox12NullsBuilderC2EiPNS0_6memory10MemoryPoolE(ptr noundef nonnull align 8 dereferenceable(32) %builder, i32 noundef %0, ptr noundef %1)
  store i64 0, ptr %i, align 8
  br label %for.cond

for.cond:                                         ; preds = %for.inc, %entry
  %2 = load i64, ptr %i, align 8
  %3 = load i32, ptr %vectorSize.addr, align 4
  %conv = sext i32 %3 to i64
  %cmp = icmp ult i64 %2, %conv
  br i1 %cmp, label %for.body, label %for.end

for.body:                                         ; preds = %for.cond
  %4 = load ptr, ptr %rng.addr, align 8
  %5 = load double, ptr %nullProbability.addr, align 8
  %call = invoke noundef zeroext i1 @_ZN8facebook5velox20generator_spec_utils8coinTossERSt23mersenne_twister_engineImLm32ELm624ELm397ELm31ELm2567483615ELm11ELm4294967295ELm7ELm2636928640ELm15ELm4022730752ELm18ELm1812433253EEd(ptr noundef nonnull align 8 dereferenceable(5000) %4, double noundef %5)
          to label %invoke.cont unwind label %lpad

invoke.cont:                                      ; preds = %for.body
  br i1 %call, label %if.then, label %if.end

if.then:                                          ; preds = %invoke.cont
  %6 = load i64, ptr %i, align 8
  %conv1 = trunc i64 %6 to i32
  invoke void @_ZN8facebook5velox12NullsBuilder7setNullEi(ptr noundef nonnull align 8 dereferenceable(32) %builder, i32 noundef %conv1)
          to label %invoke.cont2 unwind label %lpad

invoke.cont2:                                     ; preds = %if.then
  br label %if.end

lpad:                                             ; preds = %for.end, %if.then, %for.body
  %7 = landingpad { ptr, i32 }
          cleanup
  %8 = extractvalue { ptr, i32 } %7, 0
  store ptr %8, ptr %exn.slot, align 8
  %9 = extractvalue { ptr, i32 } %7, 1
  store i32 %9, ptr %ehselector.slot, align 4
  call void @_ZN8facebook5velox12NullsBuilderD2Ev(ptr noundef nonnull align 8 dereferenceable(32) %builder) #1
  br label %eh.resume

if.end:                                           ; preds = %invoke.cont2, %invoke.cont
  br label %for.inc

for.inc:                                          ; preds = %if.end
  %10 = load i64, ptr %i, align 8
  %inc = add i64 %10, 1
  store i64 %inc, ptr %i, align 8
  br label %for.cond, !llvm.loop !5

for.end:                                          ; preds = %for.cond
  invoke void @_ZNK8facebook5velox12NullsBuilder5buildEv(ptr sret(%"class.boost::intrusive_ptr") align 8 %agg.result, ptr noundef nonnull align 8 dereferenceable(32) %builder)
          to label %invoke.cont3 unwind label %lpad

invoke.cont3:                                     ; preds = %for.end
  call void @_ZN8facebook5velox12NullsBuilderD2Ev(ptr noundef nonnull align 8 dereferenceable(32) %builder) #1
  ret void

eh.resume:                                        ; preds = %lpad
  %exn = load ptr, ptr %exn.slot, align 8
  %sel = load i32, ptr %ehselector.slot, align 4
  %lpad.val = insertvalue { ptr, i32 } poison, ptr %exn, 0
  %lpad.val4 = insertvalue { ptr, i32 } %lpad.val, i32 %sel, 1
  resume { ptr, i32 } %lpad.val4
}