; Function Attrs: mustprogress uwtable
define void @_ZN8facebook5velox20generator_spec_utils19generateNullsBufferERSt23mersenne_twister_engineImLm32ELm624ELm397ELm31ELm2567483615ELm11ELm4294967295ELm7ELm2636928640ELm15ELm4022730752ELm18ELm1812433253EEPNS0_6memory10MemoryPoolEid(ptr noalias nocapture writeonly sret(%"class.boost::intrusive_ptr") align 8 %agg.result, ptr noundef nonnull align 8 dereferenceable(5000) %rng, ptr noundef %pool, i32 noundef %vectorSize, double noundef %nullProbability) local_unnamed_addr #0 personality ptr @__gxx_personality_v0 {
entry:
  %builder = alloca %"struct.facebook::velox::NullsBuilder", align 8
  store i32 %vectorSize, ptr %builder, align 8
  %pool_.i = getelementptr inbounds i8, ptr %builder, i64 8
  store ptr %pool, ptr %pool_.i, align 8
  %nulls_.i = getelementptr inbounds i8, ptr %builder, i64 16
  call void @llvm.memset.p0.i64(ptr noundef nonnull align 8 dereferenceable(16) %nulls_.i, i8 0, i64 16, i1 false)
  %conv = sext i32 %vectorSize to i64
  %cmp10.not = icmp eq i32 %vectorSize, 0
  br i1 %cmp10.not, label %for.end.thread, label %for.body

for.end.thread:                                   ; preds = %entry
  store ptr null, ptr %agg.result, align 8, !alias.scope !7
  br label %_ZN8facebook5velox12NullsBuilderD2Ev.exit

for.body:                                         ; preds = %entry, %for.inc
  %i.011 = phi i64 [ %inc, %for.inc ], [ 0, %entry ]
  %call = invoke noundef zeroext i1 @_ZN8facebook5velox20generator_spec_utils8coinTossERSt23mersenne_twister_engineImLm32ELm624ELm397ELm31ELm2567483615ELm11ELm4294967295ELm7ELm2636928640ELm15ELm4022730752ELm18ELm1812433253EEd(ptr noundef nonnull align 8 dereferenceable(5000) %rng, double noundef %nullProbability)
          to label %invoke.cont unwind label %lpad

invoke.cont:                                      ; preds = %for.body
  br i1 %call, label %if.then, label %for.inc

if.then:                                          ; preds = %invoke.cont
  %conv1 = trunc i64 %i.011 to i32
  invoke void @_ZN8facebook5velox12NullsBuilder7setNullEi(ptr noundef nonnull align 8 dereferenceable(32) %builder, i32 noundef %conv1)
          to label %for.inc unwind label %lpad

lpad:                                             ; preds = %if.then, %for.body
  %0 = landingpad { ptr, i32 }
          cleanup
  call void @_ZN8facebook5velox12NullsBuilderD2Ev(ptr noundef nonnull align 8 dereferenceable(32) %builder) #13
  resume { ptr, i32 } %0

for.inc:                                          ; preds = %invoke.cont, %if.then
  %inc = add nuw i64 %i.011, 1
  %exitcond.not = icmp eq i64 %inc, %conv
  br i1 %exitcond.not, label %for.end, label %for.body, !llvm.loop !10

for.end:                                          ; preds = %for.inc
  %.pre = load ptr, ptr %nulls_.i, align 8
  call void @llvm.experimental.noalias.scope.decl(metadata !11)
  store ptr %.pre, ptr %agg.result, align 8, !alias.scope !11
  %cmp.not.i.i = icmp eq ptr %.pre, null
  br i1 %cmp.not.i.i, label %_ZN8facebook5velox12NullsBuilderD2Ev.exit, label %invoke.cont3

invoke.cont3:                                     ; preds = %for.end
  %referenceCount_.i.i.i.i = getelementptr inbounds i8, ptr %.pre, i64 40
  %1 = atomicrmw add ptr %referenceCount_.i.i.i.i, i32 1 seq_cst, align 4, !noalias !11
  %.pr = load ptr, ptr %nulls_.i, align 8
  %cmp.not.i.i6 = icmp eq ptr %.pr, null
  br i1 %cmp.not.i.i6, label %_ZN8facebook5velox12NullsBuilderD2Ev.exit, label %if.then.i.i7

if.then.i.i7:                                     ; preds = %invoke.cont3
  %referenceCount_.i.i.i.i8 = getelementptr inbounds i8, ptr %.pr, i64 40
  %2 = atomicrmw sub ptr %referenceCount_.i.i.i.i8, i32 1 seq_cst, align 4
  %cmp.i.i.i.i = icmp eq i32 %2, 1
  br i1 %cmp.i.i.i.i, label %if.then.i.i.i.i, label %_ZN8facebook5velox12NullsBuilderD2Ev.exit

if.then.i.i.i.i:                                  ; preds = %if.then.i.i7
  %vtable.i.i.i.i = load ptr, ptr %.pr, align 8
  %vfn.i.i.i.i = getelementptr inbounds i8, ptr %vtable.i.i.i.i, i64 64
  %3 = load ptr, ptr %vfn.i.i.i.i, align 8
  invoke void %3(ptr noundef nonnull align 8 dereferenceable(64) %.pr)
          to label %.noexc.i.i unwind label %terminate.lpad.i.i

.noexc.i.i:                                       ; preds = %if.then.i.i.i.i
  %pool_.i.i.i.i = getelementptr inbounds i8, ptr %.pr, i64 8
  %4 = load ptr, ptr %pool_.i.i.i.i, align 8
  %tobool.not.i.i.i.i = icmp eq ptr %4, null
  %vtable5.i.i.i.i = load ptr, ptr %.pr, align 8
  br i1 %tobool.not.i.i.i.i, label %delete.notnull.i.i.i.i, label %if.then2.i.i.i.i

if.then2.i.i.i.i:                                 ; preds = %.noexc.i.i
  %vfn4.i.i.i.i = getelementptr inbounds i8, ptr %vtable5.i.i.i.i, i64 48
  %5 = load ptr, ptr %vfn4.i.i.i.i, align 8
  invoke void %5(ptr noundef nonnull align 8 dereferenceable(64) %.pr)
          to label %_ZN8facebook5velox12NullsBuilderD2Ev.exit unwind label %terminate.lpad.i.i

delete.notnull.i.i.i.i:                           ; preds = %.noexc.i.i
  %vfn6.i.i.i.i = getelementptr inbounds i8, ptr %vtable5.i.i.i.i, i64 8
  %6 = load ptr, ptr %vfn6.i.i.i.i, align 8
  call void %6(ptr noundef nonnull align 8 dereferenceable(64) %.pr) #13
  br label %_ZN8facebook5velox12NullsBuilderD2Ev.exit

terminate.lpad.i.i:                               ; preds = %if.then2.i.i.i.i, %if.then.i.i.i.i
  %7 = landingpad { ptr, i32 }
          catch ptr null
  %8 = extractvalue { ptr, i32 } %7, 0
  call void @__clang_call_terminate(ptr %8) #14
  unreachable

_ZN8facebook5velox12NullsBuilderD2Ev.exit:        ; preds = %for.end.thread, %for.end, %invoke.cont3, %if.then.i.i7, %if.then2.i.i.i.i, %delete.notnull.i.i.i.i
  ret void
}